target datalayout = "e-m:e-p270:32:32-p271:32:32-p272:64:64-i64:64-i128:128-f80:128-n8:16:32:64-S128"
target triple = "x86_64-pc-linux-gnu"

%struct.SurfaceDataRasInfo = type { %struct.SurfaceDataBounds, ptr, i32, i32, i32, i32, ptr, ptr, ptr, ptr, ptr, ptr, i32, %union.anon.0 }
%struct.SurfaceDataBounds = type { i32, i32, i32, i32 }
%union.anon.0 = type { ptr, [56 x i8] }
%struct.ImageRef = type { ptr, ptr, i32, i32, i32, i32, i32, i32 }

@mul8table = external global [256 x [256 x i8]], align 16

; Function Attrs: nounwind uwtable
define hidden void @ByteGrayDrawGlyphListAA(ptr noundef %0, ptr noundef %1, i32 noundef %2, i32 noundef %3, i32 noundef %4, i32 noundef %5, i32 noundef %6, i32 noundef %7, i32 noundef %8, ptr noundef %9, ptr noundef %10) #1 {
  %12 = alloca ptr, align 8
  %13 = alloca ptr, align 8
  %14 = alloca i32, align 4
  %15 = alloca i32, align 4
  %16 = alloca i32, align 4
  %17 = alloca i32, align 4
  %18 = alloca i32, align 4
  %19 = alloca i32, align 4
  %20 = alloca i32, align 4
  %21 = alloca ptr, align 8
  %22 = alloca ptr, align 8
  %23 = alloca i32, align 4
  %24 = alloca i32, align 4
  %25 = alloca ptr, align 8
  %26 = alloca i32, align 4
  %27 = alloca i32, align 4
  %28 = alloca i32, align 4
  %29 = alloca i32, align 4
  %30 = alloca i32, align 4
  %31 = alloca ptr, align 8
  %32 = alloca i32, align 4
  %33 = alloca i32, align 4
  %34 = alloca i32, align 4
  %35 = alloca i32, align 4
  %36 = alloca i32, align 4
  %37 = alloca i32, align 4
  %38 = alloca i32, align 4
  %39 = alloca i32, align 4
  %40 = alloca i32, align 4
  %41 = alloca i32, align 4
  %42 = alloca i32, align 4
  store ptr %0, ptr %12, align 8
  store ptr %1, ptr %13, align 8
  store i32 %2, ptr %14, align 4
  store i32 %3, ptr %15, align 4
  store i32 %4, ptr %16, align 4
  store i32 %5, ptr %17, align 4
  store i32 %6, ptr %18, align 4
  store i32 %7, ptr %19, align 4
  store i32 %8, ptr %20, align 4
  store ptr %9, ptr %21, align 8
  store ptr %10, ptr %22, align 8
  %43 = load ptr, ptr %12, align 8
  %44 = getelementptr inbounds %struct.SurfaceDataRasInfo, ptr %43, i32 0, i32 4
  %45 = load i32, ptr %44, align 8
  store i32 %45, ptr %24, align 4
  br label %46

46:                                               ; preds = %11
  br label %47

47:                                               ; preds = %46
  %48 = load i32, ptr %16, align 4
  %49 = and i32 %48, 255
  store i32 %49, ptr %30, align 4
  %50 = load i32, ptr %16, align 4
  %51 = ashr i32 %50, 8
  %52 = and i32 %51, 255
  store i32 %52, ptr %29, align 4
  %53 = load i32, ptr %16, align 4
  %54 = ashr i32 %53, 16
  %55 = and i32 %54, 255
  store i32 %55, ptr %28, align 4
  %56 = load i32, ptr %16, align 4
  %57 = ashr i32 %56, 24
  %58 = and i32 %57, 255
  store i32 %58, ptr %26, align 4
  br label %59

59:                                               ; preds = %47
  %60 = load i32, ptr %28, align 4
  %61 = mul nsw i32 77, %60
  %62 = load i32, ptr %29, align 4
  %63 = mul nsw i32 150, %62
  %64 = add nsw i32 %61, %63
  %65 = load i32, ptr %30, align 4
  %66 = mul nsw i32 29, %65
  %67 = add nsw i32 %64, %66
  %68 = add nsw i32 %67, 128
  %69 = sdiv i32 %68, 256
  %70 = trunc i32 %69 to i8
  %71 = zext i8 %70 to i32
  store i32 %71, ptr %27, align 4
  br label %72

72:                                               ; preds = %59
  store i32 0, ptr %23, align 4
  br label %73

73:                                               ; preds = %270, %72
  %74 = load i32, ptr %23, align 4
  %75 = load i32, ptr %14, align 4
  %76 = icmp slt i32 %74, %75
  br i1 %76, label %77, label %273

77:                                               ; preds = %73
  %78 = load ptr, ptr %13, align 8
  %79 = load i32, ptr %23, align 4
  %80 = sext i32 %79 to i64
  %81 = getelementptr inbounds %struct.ImageRef, ptr %78, i64 %80
  %82 = getelementptr inbounds %struct.ImageRef, ptr %81, i32 0, i32 1
  %83 = load ptr, ptr %82, align 8
  store ptr %83, ptr %31, align 8
  %84 = load ptr, ptr %31, align 8
  %85 = icmp ne ptr %84, null
  br i1 %85, label %87, label %86

86:                                               ; preds = %77
  br label %270

87:                                               ; preds = %77
  %88 = load ptr, ptr %13, align 8
  %89 = load i32, ptr %23, align 4
  %90 = sext i32 %89 to i64
  %91 = getelementptr inbounds %struct.ImageRef, ptr %88, i64 %90
  %92 = getelementptr inbounds %struct.ImageRef, ptr %91, i32 0, i32 2
  %93 = load i32, ptr %92, align 8
  store i32 %93, ptr %32, align 4
  %94 = load ptr, ptr %13, align 8
  %95 = load i32, ptr %23, align 4
  %96 = sext i32 %95 to i64
  %97 = getelementptr inbounds %struct.ImageRef, ptr %94, i64 %96
  %98 = getelementptr inbounds %struct.ImageRef, ptr %97, i32 0, i32 6
  %99 = load i32, ptr %98, align 8
  store i32 %99, ptr %33, align 4
  %100 = load ptr, ptr %13, align 8
  %101 = load i32, ptr %23, align 4
  %102 = sext i32 %101 to i64
  %103 = getelementptr inbounds %struct.ImageRef, ptr %100, i64 %102
  %104 = getelementptr inbounds %struct.ImageRef, ptr %103, i32 0, i32 7
  %105 = load i32, ptr %104, align 4
  store i32 %105, ptr %34, align 4
  %106 = load ptr, ptr %13, align 8
  %107 = load i32, ptr %23, align 4
  %108 = sext i32 %107 to i64
  %109 = getelementptr inbounds %struct.ImageRef, ptr %106, i64 %108
  %110 = getelementptr inbounds %struct.ImageRef, ptr %109, i32 0, i32 4
  %111 = load i32, ptr %110, align 8
  store i32 %111, ptr %35, align 4
  %112 = load ptr, ptr %13, align 8
  %113 = load i32, ptr %23, align 4
  %114 = sext i32 %113 to i64
  %115 = getelementptr inbounds %struct.ImageRef, ptr %112, i64 %114
  %116 = getelementptr inbounds %struct.ImageRef, ptr %115, i32 0, i32 5
  %117 = load i32, ptr %116, align 4
  store i32 %117, ptr %36, align 4
  %118 = load i32, ptr %33, align 4
  %119 = load i32, ptr %35, align 4
  %120 = add nsw i32 %118, %119
  store i32 %120, ptr %37, align 4
  %121 = load i32, ptr %34, align 4
  %122 = load i32, ptr %36, align 4
  %123 = add nsw i32 %121, %122
  store i32 %123, ptr %38, align 4
  %124 = load i32, ptr %33, align 4
  %125 = load i32, ptr %17, align 4
  %126 = icmp slt i32 %124, %125
  br i1 %126, label %127, label %136

127:                                              ; preds = %87
  %128 = load i32, ptr %17, align 4
  %129 = load i32, ptr %33, align 4
  %130 = sub nsw i32 %128, %129
  %131 = mul nsw i32 %130, 1
  %132 = load ptr, ptr %31, align 8
  %133 = sext i32 %131 to i64
  %134 = getelementptr inbounds i8, ptr %132, i64 %133
  store ptr %134, ptr %31, align 8
  %135 = load i32, ptr %17, align 4
  store i32 %135, ptr %33, align 4
  br label %136

136:                                              ; preds = %127, %87
  %137 = load i32, ptr %34, align 4
  %138 = load i32, ptr %18, align 4
  %139 = icmp slt i32 %137, %138
  br i1 %139, label %140, label %150

140:                                              ; preds = %136
  %141 = load i32, ptr %18, align 4
  %142 = load i32, ptr %34, align 4
  %143 = sub nsw i32 %141, %142
  %144 = load i32, ptr %32, align 4
  %145 = mul nsw i32 %143, %144
  %146 = load ptr, ptr %31, align 8
  %147 = sext i32 %145 to i64
  %148 = getelementptr inbounds i8, ptr %146, i64 %147
  store ptr %148, ptr %31, align 8
  %149 = load i32, ptr %18, align 4
  store i32 %149, ptr %34, align 4
  br label %150

150:                                              ; preds = %140, %136
  %151 = load i32, ptr %37, align 4
  %152 = load i32, ptr %19, align 4
  %153 = icmp sgt i32 %151, %152
  br i1 %153, label %154, label %156

154:                                              ; preds = %150
  %155 = load i32, ptr %19, align 4
  store i32 %155, ptr %37, align 4
  br label %156

156:                                              ; preds = %154, %150
  %157 = load i32, ptr %38, align 4
  %158 = load i32, ptr %20, align 4
  %159 = icmp sgt i32 %157, %158
  br i1 %159, label %160, label %162

160:                                              ; preds = %156
  %161 = load i32, ptr %20, align 4
  store i32 %161, ptr %38, align 4
  br label %162

162:                                              ; preds = %160, %156
  %163 = load i32, ptr %37, align 4
  %164 = load i32, ptr %33, align 4
  %165 = icmp sle i32 %163, %164
  br i1 %165, label %170, label %166

166:                                              ; preds = %162
  %167 = load i32, ptr %38, align 4
  %168 = load i32, ptr %34, align 4
  %169 = icmp sle i32 %167, %168
  br i1 %169, label %170, label %171

170:                                              ; preds = %166, %162
  br label %270

171:                                              ; preds = %166
  %172 = load i32, ptr %37, align 4
  %173 = load i32, ptr %33, align 4
  %174 = sub nsw i32 %172, %173
  store i32 %174, ptr %35, align 4
  %175 = load i32, ptr %38, align 4
  %176 = load i32, ptr %34, align 4
  %177 = sub nsw i32 %175, %176
  store i32 %177, ptr %36, align 4
  %178 = load ptr, ptr %12, align 8
  %179 = getelementptr inbounds %struct.SurfaceDataRasInfo, ptr %178, i32 0, i32 1
  %180 = load ptr, ptr %179, align 8
  %181 = ptrtoint ptr %180 to i64
  %182 = load i32, ptr %34, align 4
  %183 = sext i32 %182 to i64
  %184 = load i32, ptr %24, align 4
  %185 = sext i32 %184 to i64
  %186 = mul nsw i64 %183, %185
  %187 = load i32, ptr %33, align 4
  %188 = sext i32 %187 to i64
  %189 = mul nsw i64 %188, 1
  %190 = add nsw i64 %186, %189
  %191 = add nsw i64 %181, %190
  %192 = inttoptr i64 %191 to ptr
  store ptr %192, ptr %25, align 8
  br label %193

193:                                              ; preds = %265, %171
  store i32 0, ptr %39, align 4
  br label %194

194:                                              ; preds = %249, %193
  br label %195

195:                                              ; preds = %194
  %196 = load ptr, ptr %31, align 8
  %197 = load i32, ptr %39, align 4
  %198 = sext i32 %197 to i64
  %199 = getelementptr inbounds i8, ptr %196, i64 %198
  %200 = load i8, ptr %199, align 1
  %201 = zext i8 %200 to i32
  store i32 %201, ptr %41, align 4
  %202 = load i32, ptr %41, align 4
  %203 = icmp ne i32 %202, 0
  br i1 %203, label %204, label %247

204:                                              ; preds = %195
  %205 = load i32, ptr %41, align 4
  %206 = icmp slt i32 %205, 255
  br i1 %206, label %207, label %239

207:                                              ; preds = %204
  %208 = load i32, ptr %41, align 4
  %209 = sub nsw i32 255, %208
  store i32 %209, ptr %42, align 4
  %210 = load ptr, ptr %25, align 8
  %211 = load i32, ptr %39, align 4
  %212 = sext i32 %211 to i64
  %213 = getelementptr inbounds i8, ptr %210, i64 %212
  %214 = load i8, ptr %213, align 1
  %215 = zext i8 %214 to i32
  store i32 %215, ptr %40, align 4
  %216 = load i32, ptr %42, align 4
  %217 = sext i32 %216 to i64
  %218 = getelementptr inbounds [256 x [256 x i8]], ptr @mul8table, i64 0, i64 %217
  %219 = load i32, ptr %40, align 4
  %220 = sext i32 %219 to i64
  %221 = getelementptr inbounds [256 x i8], ptr %218, i64 0, i64 %220
  %222 = load i8, ptr %221, align 1
  %223 = zext i8 %222 to i32
  %224 = load i32, ptr %41, align 4
  %225 = sext i32 %224 to i64
  %226 = getelementptr inbounds [256 x [256 x i8]], ptr @mul8table, i64 0, i64 %225
  %227 = load i32, ptr %27, align 4
  %228 = sext i32 %227 to i64
  %229 = getelementptr inbounds [256 x i8], ptr %226, i64 0, i64 %228
  %230 = load i8, ptr %229, align 1
  %231 = zext i8 %230 to i32
  %232 = add nsw i32 %223, %231
  store i32 %232, ptr %40, align 4
  %233 = load i32, ptr %40, align 4
  %234 = trunc i32 %233 to i8
  %235 = load ptr, ptr %25, align 8
  %236 = load i32, ptr %39, align 4
  %237 = sext i32 %236 to i64
  %238 = getelementptr inbounds i8, ptr %235, i64 %237
  store i8 %234, ptr %238, align 1
  br label %246

239:                                              ; preds = %204
  %240 = load i32, ptr %15, align 4
  %241 = trunc i32 %240 to i8
  %242 = load ptr, ptr %25, align 8
  %243 = load i32, ptr %39, align 4
  %244 = sext i32 %243 to i64
  %245 = getelementptr inbounds i8, ptr %242, i64 %244
  store i8 %241, ptr %245, align 1
  br label %246

246:                                              ; preds = %239, %207
  br label %247

247:                                              ; preds = %246, %195
  br label %248

248:                                              ; preds = %247
  br label %249

249:                                              ; preds = %248
  %250 = load i32, ptr %39, align 4
  %251 = add nsw i32 %250, 1
  store i32 %251, ptr %39, align 4
  %252 = load i32, ptr %35, align 4
  %253 = icmp slt i32 %251, %252
  br i1 %253, label %194, label %254, !llvm.loop !83

254:                                              ; preds = %249
  %255 = load ptr, ptr %25, align 8
  %256 = ptrtoint ptr %255 to i64
  %257 = load i32, ptr %24, align 4
  %258 = sext i32 %257 to i64
  %259 = add nsw i64 %256, %258
  %260 = inttoptr i64 %259 to ptr
  store ptr %260, ptr %25, align 8
  %261 = load i32, ptr %32, align 4
  %262 = load ptr, ptr %31, align 8
  %263 = sext i32 %261 to i64
  %264 = getelementptr inbounds i8, ptr %262, i64 %263
  store ptr %264, ptr %31, align 8
  br label %265

265:                                              ; preds = %254
  %266 = load i32, ptr %36, align 4
  %267 = add nsw i32 %266, -1
  store i32 %267, ptr %36, align 4
  %268 = icmp sgt i32 %267, 0
  br i1 %268, label %193, label %269, !llvm.loop !84

269:                                              ; preds = %265
  br label %270

270:                                              ; preds = %269, %170, %86
  %271 = load i32, ptr %23, align 4
  %272 = add nsw i32 %271, 1
  store i32 %272, ptr %23, align 4
  br label %73, !llvm.loop !85

273:                                              ; preds = %73
  ret void
}