; Function Attrs: nofree norecurse nosync nounwind memory(readwrite, inaccessiblemem: none) uwtable
define hidden void @ByteGrayDrawGlyphListAA(ptr nocapture noundef readonly %0, ptr nocapture noundef readonly %1, i32 noundef %2, i32 noundef %3, i32 noundef %4, i32 noundef %5, i32 noundef %6, i32 noundef %7, i32 noundef %8, ptr nocapture readnone %9, ptr nocapture readnone %10) #1 {
  %12 = icmp sgt i32 %2, 0
  br i1 %12, label %.lr.ph, label %._crit_edge

.lr.ph:                                           ; preds = %11
  %13 = and i32 %4, 255
  %14 = mul nuw nsw i32 %13, 29
  %15 = add nuw nsw i32 %14, 128
  %16 = lshr i32 %4, 8
  %17 = and i32 %16, 255
  %18 = mul nuw nsw i32 %17, 150
  %19 = add nuw nsw i32 %15, %18
  %20 = lshr i32 %4, 16
  %21 = and i32 %20, 255
  %22 = mul nuw nsw i32 %21, 77
  %23 = add nuw nsw i32 %19, %22
  %24 = lshr i32 %23, 8
  %25 = getelementptr inbounds i8, ptr %0, i64 32
  %26 = load i32, ptr %25, align 8
  %27 = getelementptr inbounds i8, ptr %0, i64 16
  %28 = sext i32 %26 to i64
  %29 = trunc i32 %3 to i8
  %30 = zext nneg i32 %24 to i64
  %wide.trip.count114 = zext nneg i32 %2 to i64
  br label %31

31:                                               ; preds = %.lr.ph, %.loopexit
  %indvars.iv111 = phi i64 [ 0, %.lr.ph ], [ %indvars.iv.next112, %.loopexit ]
  %32 = getelementptr inbounds %struct.ImageRef, ptr %1, i64 %indvars.iv111
  %33 = getelementptr inbounds i8, ptr %32, i64 8
  %34 = load ptr, ptr %33, align 8
  %.not = icmp eq ptr %34, null
  br i1 %.not, label %.loopexit, label %35

35:                                               ; preds = %31
  %36 = getelementptr inbounds i8, ptr %32, i64 32
  %37 = load i32, ptr %36, align 8
  %38 = getelementptr inbounds i8, ptr %32, i64 36
  %39 = load i32, ptr %38, align 4
  %40 = getelementptr inbounds i8, ptr %32, i64 24
  %41 = load i32, ptr %40, align 8
  %42 = getelementptr inbounds i8, ptr %32, i64 28
  %43 = load i32, ptr %42, align 4
  %44 = add nsw i32 %41, %37
  %45 = add nsw i32 %43, %39
  %.089 = tail call i32 @llvm.smax.i32(i32 %37, i32 %5)
  %.088 = tail call i32 @llvm.smax.i32(i32 %39, i32 %6)
  %.086 = tail call i32 @llvm.smin.i32(i32 %44, i32 %7)
  %.085 = tail call i32 @llvm.smin.i32(i32 %45, i32 %8)
  %.not104 = icmp sgt i32 %.086, %.089
  %.not105 = icmp sgt i32 %.085, %.088
  %or.cond = select i1 %.not104, i1 %.not105, i1 false
  br i1 %or.cond, label %46, label %.loopexit

46:                                               ; preds = %35
  %47 = getelementptr inbounds i8, ptr %32, i64 16
  %48 = load i32, ptr %47, align 8
  %49 = icmp slt i32 %39, %6
  %50 = icmp slt i32 %37, %5
  %51 = sub nsw i32 %5, %37
  %narrow = select i1 %50, i32 %51, i32 0
  %.083.idx = sext i32 %narrow to i64
  %.083 = getelementptr inbounds i8, ptr %34, i64 %.083.idx
  %52 = sub nsw i32 %6, %39
  %53 = mul nsw i32 %52, %48
  %narrow108 = select i1 %49, i32 %53, i32 0
  %.1.idx = sext i32 %narrow108 to i64
  %.1 = getelementptr inbounds i8, ptr %.083, i64 %.1.idx
  %54 = sub i32 %.086, %.089
  %55 = sub nsw i32 %.085, %.088
  %56 = load ptr, ptr %27, align 8
  %57 = ptrtoint ptr %56 to i64
  %58 = sext i32 %.088 to i64
  %59 = mul nsw i64 %58, %28
  %60 = sext i32 %.089 to i64
  %61 = add nsw i64 %59, %60
  %62 = add nsw i64 %61, %57
  %63 = sext i32 %48 to i64
  %smax = tail call i32 @llvm.smax.i32(i32 %54, i32 1)
  %wide.trip.count = zext nneg i32 %smax to i64
  br label %64

64:                                               ; preds = %83, %46
  %.087 = phi i32 [ %55, %46 ], [ %86, %83 ]
  %.2 = phi ptr [ %.1, %46 ], [ %85, %83 ]
  %.082.in = phi i64 [ %62, %46 ], [ %84, %83 ]
  %.082 = inttoptr i64 %.082.in to ptr
  br label %65

65:                                               ; preds = %82, %64
  %indvars.iv = phi i64 [ %indvars.iv.next, %82 ], [ 0, %64 ]
  %66 = getelementptr inbounds i8, ptr %.2, i64 %indvars.iv
  %67 = load i8, ptr %66, align 1
  switch i8 %67, label %68 [
    i8 0, label %82
    i8 -1, label %80
  ]

68:                                               ; preds = %65
  %69 = xor i8 %67, -1
  %70 = getelementptr inbounds i8, ptr %.082, i64 %indvars.iv
  %71 = load i8, ptr %70, align 1
  %72 = zext i8 %69 to i64
  %73 = zext i8 %71 to i64
  %74 = getelementptr inbounds [256 x [256 x i8]], ptr @mul8table, i64 0, i64 %72, i64 %73
  %75 = load i8, ptr %74, align 1
  %76 = zext i8 %67 to i64
  %77 = getelementptr inbounds [256 x [256 x i8]], ptr @mul8table, i64 0, i64 %76, i64 %30
  %78 = load i8, ptr %77, align 1
  %79 = add i8 %78, %75
  store i8 %79, ptr %70, align 1
  br label %82

80:                                               ; preds = %65
  %81 = getelementptr inbounds i8, ptr %.082, i64 %indvars.iv
  store i8 %29, ptr %81, align 1
  br label %82

82:                                               ; preds = %65, %68, %80
  %indvars.iv.next = add nuw nsw i64 %indvars.iv, 1
  %exitcond.not = icmp eq i64 %indvars.iv.next, %wide.trip.count
  br i1 %exitcond.not, label %83, label %65, !llvm.loop !79

83:                                               ; preds = %82
  %84 = add nsw i64 %.082.in, %28
  %85 = getelementptr inbounds i8, ptr %.2, i64 %63
  %86 = add nsw i32 %.087, -1
  %87 = icmp sgt i32 %.087, 1
  br i1 %87, label %64, label %.loopexit, !llvm.loop !80

.loopexit:                                        ; preds = %83, %35, %31
  %indvars.iv.next112 = add nuw nsw i64 %indvars.iv111, 1
  %exitcond115.not = icmp eq i64 %indvars.iv.next112, %wide.trip.count114
  br i1 %exitcond115.not, label %._crit_edge, label %31, !llvm.loop !81

._crit_edge:                                      ; preds = %.loopexit, %11
  ret void
}